(lp0
(dp1
S'limited'
p2
I0
sS'company\xe2\x80\x94reshaping'
p3
I1
sS'chain'
p4
I2
sS'caused'
p5
I3
sS'broaden'
p6
I4
sS'focus'
p7
I5
sS'founded'
p8
I18
sS'tv'
p9
I7
sS'to'
p10
I8
sS'charge'
p11
I9
sS'under'
p12
I10
sS'include'
p13
I11
sS'smartphone'
p14
I12
sS'returned'
p15
I13
sS'imessage'
p16
I14
sS'facebook'
p17
I15
sS'cook'
p18
I16
sS'bringing'
p19
I17
sS'four'
p20
I6
sS'level'
p21
I19
sS'did'
p22
I20
sS'companies'
p23
I21
sS'third-largest'
p24
I22
sS'earbuds'
p25
I24
sS'portable'
p26
I25
sS'regained'
p27
I26
sS'lower-priced'
p28
I27
sS'what'
p29
I28
sS'business'
p30
I29
sS'profitability'
p31
I30
sS'huawei'
p32
I31
sS'new'
p33
I32
sS'public'
p34
I33
sS'multinational'
p35
I34
sS'led'
p36
I35
sS'operating'
p37
I36
sS'others'
p38
I37
sS'along'
p39
I38
sS'great'
p40
I39
sS'employees'
p41
I40
sS'itunes'
p42
I41
sS'products'
p43
I42
sS'ipados'
p44
I43
sS'macintosh'
p45
I44
sS'criticism'
p46
I45
sS'apple'
p47
I46
sS'ilife'
p48
I270
sS'app'
p49
I48
sS'market'
p50
I49
sS'use'
p51
I50
sS'would'
p52
I51
sS'watchos'
p53
I52
sS'homepod'
p54
I184
sS'next'
p55
I54
sS'few'
p56
I55
sS'music'
p57
I56
sS'iphone'
p58
I57
sS'more'
p59
I58
sS"apple's"
p60
I59
sS'airpods'
p61
I60
sS'company'
p62
I61
sS'phone'
p63
I62
sS'amelio'
p64
I63
sS'known'
p65
I64
sS'hardware'
p66
I65
sS'valued'
p67
I66
sS'1997'
p68
I67
sS'1998'
p69
I68
sS'era'
p70
I69
sS'evolved'
p71
I70
sS'revenues'
p72
I71
sS'tvos'
p73
I72
sS'share'
p74
I73
sS'high'
p75
I74
sS'employs'
p76
I75
sS'totaled'
p77
I76
sS'end'
p78
I77
sS'steve'
p79
I78
sS'struggles'
p80
I79
sS'widespread'
p81
I80
sS'product'
p82
I81
sS'after'
p83
I82
sS'headquartered'
p84
I83
sS'loyalty'
p85
I84
sS'ronald'
p86
I125
sS'applications'
p87
I86
sS'mac'
p88
I87
sS'develop'
p89
I117
sS'a'
p90
I89
sS'media'
p91
I250
sS'american'
p92
I129
sS'software'
p93
I92
sS'over'
p94
I93
sS'years'
p95
I94
sS'including'
p96
I95
sS'innovative'
p97
I96
sS'its'
p98
I97
sS'24'
p99
I98
sS'500-day'
p100
I99
sS'personal'
p101
I100
sS'solving'
p102
I101
sS'labor'
p103
I102
sS'production'
p104
I103
sS'systems'
p105
I104
sS'troubled'
p106
I105
sS'2011'
p107
I106
sS'designs'
p108
I107
sS'ceo'
p109
I108
sS'applecare'
p110
I109
sS'safari'
p111
I110
sS'desperately'
p112
I111
sS'january'
p113
I112
sS'found'
p114
I113
sS'went'
p115
I114
sS'financial'
p116
I115
sS'year'
p117
I116
sS'health'
p118
I118
sS'electronics'
p119
I119
sS"wozniak's"
p120
I120
sS'ipod'
p121
I121
sS'maintains'
p122
I122
sS'california'
p123
I123
sS'card'
p124
I124
sS'rehabilitate'
p125
I85
sS'macos'
p126
I126
sS'computers'
p127
I127
sS'days'
p128
I128
sS'shipped'
p129
I23
sS'incorporated'
p130
I130
sS'retail'
p131
I131
sS'think'
p132
I132
sS'first'
p133
I133
sS'revenue'
p134
I134
sS'one'
p135
I135
sS'such'
p136
I88
sS'size'
p137
I136
sS'trillion'
p138
I137
sS'system'
p139
I138
sS'final'
p140
I139
sS'store'
p141
I140
sS'shifted'
p142
I141
sS'that'
p143
I142
sS'environmental'
p144
I143
sS'reflecting'
p145
I144
sS'than'
p146
I145
sS'$1'
p147
I146
sS'ipad'
p148
I147
sS'13'
p149
I148
sS'grew'
p150
I149
sS'123000'
p151
I150
sS'recruited'
p152
I151
sS'1977'
p153
I152
sS'computer'
p154
I203
sS"company's"
p155
I154
sS'toward'
p156
I155
sS'browser'
p157
I156
sS'and'
p158
I157
sS'acclaim'
p159
I158
sS'remained'
p160
I159
sS'pro'
p161
I160
sS'sells'
p162
I161
sS'sell'
p163
I162
sS'revitalizing'
p164
I163
sS'also'
p165
I164
sS'materials'
p166
I165
sS'which'
p167
I166
sS'online'
p168
I167
sS'layoffs'
p169
I168
sS'brand'
p170
I169
sS'worldwide'
p171
I170
sS'though'
p172
I171
sS'price'
p173
I172
sS'swiftly'
p174
I173
sS'most'
p175
I174
sS'hired'
p176
I175
sS'icloud'
p177
I304
sS'services'
p178
I177
sS'considered'
p179
I187
sS'later'
p180
I179
sS'professional'
p181
I180
sS'consumer'
p182
I181
sS'microsoft'
p183
I182
sS'xcode'
p184
I183
sS'portfolio'
p185
I185
sS'staff'
p186
I186
sS'failed'
p187
I188
sS'wayne'
p188
I189
sS'$265'
p189
I190
sS'employee'
p190
I191
sS'his'
p191
I192
sS'watch'
p192
I193
sS'amazon'
p193
I194
sS'12'
p194
I195
sS"world's"
p195
I53
sS'unethical'
p196
I196
sS'him'
p197
I197
sS'regarding'
p198
I198
sS'bar'
p199
I199
sS'countries'
p200
I200
sS'through'
p201
I201
sS'operates'
p202
I202
sS'actively'
p203
I153
sS'are'
p204
I204
sS'resigned'
p205
I205
sS'genius'
p206
I206
sS'between'
p207
I207
sS'numerous'
p208
I208
sS'interfaces'
p209
I213
sS'jobs'
p210
I210
sS'august'
p211
I211
sS'opening'
p212
I212
sS'sold'
p213
I209
sS'however'
p214
I214
sS'ranked'
p215
I215
sS'windows'
p216
I178
sS'received'
p217
I216
sS'full-time'
p218
I217
sS'instant'
p219
I218
sS'annual'
p220
I219
sS'april'
p221
I220
sS'became'
p222
I221
sS'receives'
p223
I222
sS'logic'
p224
I223
sS'had'
p225
I273
sS'wozniak'
p226
I225
sS'creativity'
p227
I226
sS'due'
p228
I227
sS'quickly'
p229
I309
sS'pc'
p230
I229
sS'rebuilt'
p231
I235
sS'2018'
p232
I231
sS'graphical'
p233
I232
sS'honorary'
p234
I233
sS'smartwatch'
p235
I341
sS'acquiring'
p236
I236
sS'expanded'
p237
I237
sS'cash'
p238
I238
sS'while'
p239
I239
sS'behavior'
p240
I240
sS'launched'
p241
I241
sS'is'
p242
I242
sS'it'
p243
I243
sS'ii'
p244
I244
sS'player'
p245
I245
sS'in'
p246
I246
sS'technology'
p247
I247
sS'different'
p248
I248
sS'productivity'
p249
I249
sS'pay'
p250
I91
sS'speaker'
p251
I251
sS'largest'
p252
I252
sS'success'
p253
I282
sS'status'
p254
I253
sS'featuring'
p255
I323
sS'ios'
p256
I254
sS'user'
p257
I255
sS'contractors'
p258
I256
sS'i'
p259
I257
sS'1976'
p260
I258
sS'well'
p261
I259
sS'practices'
p262
I260
sS'the'
p263
I261
sS'cupertino'
p264
I262
sS'stores'
p265
I263
sS'departed'
p266
I264
sS'executive'
p267
I265
sS'valuable'
p268
I266
sS'financially'
p269
I267
sS'web'
p270
I268
sS'cut'
p271
I269
sS'campaign'
p272
I47
sS'tablet'
p273
I271
sS'tim'
p274
I334
sS'advertisements'
p275
I224
sS'source'
p276
I274
sS'board'
p277
I275
sS'has'
p278
I276
sS'smart'
p279
I277
sS'big'
p280
I278
sS'designers'
p281
I279
sS'like'
p282
I280
sS'intel'
p283
I281
sS'lost'
p284
I90
sS'renamed'
p285
I283
sS'amicably'
p286
I284
sS'google'
p287
I285
sS'back'
p288
I286
sS'library'
p289
I287
sS'for'
p290
I288
sS'critical'
p291
I289
sS'be'
p292
I290
sS'power'
p293
I291
sS'marketing'
p294
I292
sS'restructuring'
p295
I293
sS'leadership'
p296
I294
sS'tv+'
p297
I295
sS'by'
p298
I296
sS'manufacturer'
p299
I297
sS'on'
p300
I298
sS'anti-competitive'
p301
I299
sS'origins'
p302
I300
sS'of'
p303
I301
sS'months'
p304
I302
sS'executives'
p305
I303
sS'significant'
p306
I176
sS'within'
p307
I305
sS'retailer'
p308
I306
sS'two'
p309
I307
sS'1990s'
p310
I308
sS'strategy'
p311
I228
sS'1984'
p312
I310
sS'1985'
p313
I311
sS'1980'
p314
I312
sS'gil'
p315
I313
sS'was'
p316
I314
sS'launching'
p317
I315
sS'billion'
p318
I344
sS'buy'
p319
I317
sS'becoming'
p320
I318
sS'wireless'
p321
I319
sS'clones'
p322
I320
sS'line'
p323
I321
sS'with'
p324
I322
sS'504'
p325
I230
sS'he'
p326
I324
sS'us'
p327
I325
sS'mobile'
p328
I326
sS'complications'
p329
I327
sS'sales'
p330
I328
sS'an'
p331
I329
sS'as'
p332
I330
sS'at'
p333
I331
sS'inc'
p334
I332
sS'marking'
p335
I333
sS'application'
p336
I272
sS'other'
p337
I335
sS'digital'
p338
I336
sS'suites'
p339
I337
sS'problems'
p340
I338
sS'includes'
p341
I339
sS'develops'
p342
I340
sS'imac'
p343
I234
sS'iwork'
p344
I342
sS'died'
p345
I343
sS'fiscal'
p346
I316
sS'samsung'
p347
I345
sS'duopoly'
p348
I346
sS'pensively'
p349
I347
sS'2000'
p350
I348
sS'2001'
p351
I349
sS'2007'
p352
I350
sS'original'
p353
I351
sa(dp354
I0
g2
sI1
g3
sI2
g4
sI3
g5
sI4
g6
sI5
g7
sI6
g20
sI7
g9
sI8
g10
sI9
g11
sI10
g12
sI11
g13
sI12
g14
sI13
g15
sI14
g16
sI15
g17
sI16
g18
sI17
g19
sI18
g8
sI19
g21
sI20
g22
sI21
g23
sI22
g24
sI23
g129
sI24
g25
sI25
g26
sI26
g27
sI27
g28
sI28
g29
sI29
g30
sI30
g31
sI31
g32
sI32
g33
sI33
g34
sI34
g35
sI35
g36
sI36
g37
sI37
g38
sI38
g39
sI39
g40
sI40
g41
sI41
g42
sI42
g43
sI43
g44
sI44
g45
sI45
g46
sI46
g47
sI47
g272
sI48
g49
sI49
g50
sI50
g51
sI51
g52
sI52
g53
sI53
g195
sI54
g55
sI55
g56
sI56
g57
sI57
g58
sI58
g59
sI59
g60
sI60
g61
sI61
g62
sI62
g63
sI63
g64
sI64
g65
sI65
g66
sI66
g67
sI67
g68
sI68
g69
sI69
g70
sI70
g71
sI71
g72
sI72
g73
sI73
g74
sI74
g75
sI75
g76
sI76
g77
sI77
g78
sI78
g79
sI79
g80
sI80
g81
sI81
g82
sI82
g83
sI83
g84
sI84
g85
sI85
g125
sI86
g87
sI87
g88
sI88
g136
sI89
g90
sI90
g284
sI91
g250
sI92
g93
sI93
g94
sI94
g95
sI95
g96
sI96
g97
sI97
g98
sI98
g99
sI99
g100
sI100
g101
sI101
g102
sI102
g103
sI103
g104
sI104
g105
sI105
g106
sI106
g107
sI107
g108
sI108
g109
sI109
g110
sI110
g111
sI111
g112
sI112
g113
sI113
g114
sI114
g115
sI115
g116
sI116
g117
sI117
g89
sI118
g118
sI119
g119
sI120
g120
sI121
g121
sI122
g122
sI123
g123
sI124
g124
sI125
g86
sI126
g126
sI127
g127
sI128
g128
sI129
g92
sI130
g130
sI131
g131
sI132
g132
sI133
g133
sI134
g134
sI135
g135
sI136
g137
sI137
g138
sI138
g139
sI139
g140
sI140
g141
sI141
g142
sI142
g143
sI143
g144
sI144
g145
sI145
g146
sI146
g147
sI147
g148
sI148
g149
sI149
g150
sI150
g151
sI151
g152
sI152
g153
sI153
g203
sI154
g155
sI155
g156
sI156
g157
sI157
g158
sI158
g159
sI159
g160
sI160
g161
sI161
g162
sI162
g163
sI163
g164
sI164
g165
sI165
g166
sI166
g167
sI167
g168
sI168
g169
sI169
g170
sI170
g171
sI171
g172
sI172
g173
sI173
g174
sI174
g175
sI175
g176
sI176
g306
sI177
g178
sI178
g216
sI179
g180
sI180
g181
sI181
g182
sI182
g183
sI183
g184
sI184
g54
sI185
g185
sI186
g186
sI187
g179
sI188
g187
sI189
g188
sI190
g189
sI191
g190
sI192
g191
sI193
g192
sI194
g193
sI195
g194
sI196
g196
sI197
g197
sI198
g198
sI199
g199
sI200
g200
sI201
g201
sI202
g202
sI203
g154
sI204
g204
sI205
g205
sI206
g206
sI207
g207
sI208
g208
sI209
g213
sI210
g210
sI211
g211
sI212
g212
sI213
g209
sI214
g214
sI215
g215
sI216
g217
sI217
g218
sI218
g219
sI219
g220
sI220
g221
sI221
g222
sI222
g223
sI223
g224
sI224
g275
sI225
g226
sI226
g227
sI227
g228
sI228
g311
sI229
g230
sI230
g325
sI231
g232
sI232
g233
sI233
g234
sI234
g343
sI235
g231
sI236
g236
sI237
g237
sI238
g238
sI239
g239
sI240
g240
sI241
g241
sI242
g242
sI243
g243
sI244
g244
sI245
g245
sI246
g246
sI247
g247
sI248
g248
sI249
g249
sI250
g91
sI251
g251
sI252
g252
sI253
g254
sI254
g256
sI255
g257
sI256
g258
sI257
g259
sI258
g260
sI259
g261
sI260
g262
sI261
g263
sI262
g264
sI263
g265
sI264
g266
sI265
g267
sI266
g268
sI267
g269
sI268
g270
sI269
g271
sI270
g48
sI271
g273
sI272
g336
sI273
g225
sI274
g276
sI275
g277
sI276
g278
sI277
g279
sI278
g280
sI279
g281
sI280
g282
sI281
g283
sI282
g253
sI283
g285
sI284
g286
sI285
g287
sI286
g288
sI287
g289
sI288
g290
sI289
g291
sI290
g292
sI291
g293
sI292
g294
sI293
g295
sI294
g296
sI295
g297
sI296
g298
sI297
g299
sI298
g300
sI299
g301
sI300
g302
sI301
g303
sI302
g304
sI303
g305
sI304
g177
sI305
g307
sI306
g308
sI307
g309
sI308
g310
sI309
g229
sI310
g312
sI311
g313
sI312
g314
sI313
g315
sI314
g316
sI315
g317
sI316
g346
sI317
g319
sI318
g320
sI319
g321
sI320
g322
sI321
g323
sI322
g324
sI323
g255
sI324
g326
sI325
g327
sI326
g328
sI327
g329
sI328
g330
sI329
g331
sI330
g332
sI331
g333
sI332
g334
sI333
g335
sI334
g274
sI335
g337
sI336
g338
sI337
g339
sI338
g340
sI339
g341
sI340
g342
sI341
g235
sI342
g344
sI343
g345
sI344
g318
sI345
g347
sI346
g348
sI347
g349
sI348
g350
sI349
g351
sI350
g352
sI351
g353
sa.